; ModuleID = '9/1188.c'
source_filename = "9/1188.c"
target datalayout = "e-m:e-p270:32:32-p271:32:32-p272:64:64-i64:64-f80:128-n8:16:32:64-S128"
target triple = "x86_64-pc-linux-gnu"

@.str = private unnamed_addr constant [3 x i8] c"%d\00", align 1
@.str.1 = private unnamed_addr constant [3 x i8] c"%s\00", align 1

; Function Attrs: noinline nounwind uwtable
define dso_local i32 @main() #0 {
  %1 = alloca i32, align 4
  %2 = alloca i32, align 4
  %3 = alloca i32, align 4
  %4 = alloca i32, align 4
  %5 = alloca i32, align 4
  %6 = alloca i32, align 4
  %7 = alloca i32, align 4
  %8 = alloca i32, align 4
  %9 = alloca [100 x i32], align 16
  %10 = alloca [100 x i32], align 16
  %11 = alloca i32, align 4
  %12 = alloca [100 x [10 x i8]], align 16
  %13 = alloca [100 x [10 x i8]], align 16
  %14 = alloca [100 x [10 x i8]], align 16
  store i32 0, i32* %1, align 4
  store i32 0, i32* %3, align 4
  store i32 0, i32* %11, align 4
  %15 = call i32 (i8*, ...) @__isoc99_scanf(i8* getelementptr inbounds ([3 x i8], [3 x i8]* @.str, i64 0, i64 0), i32* %6)
  store i32 0, i32* %2, align 4
  br label %16

16:                                               ; preds = %30, %0
  %17 = load i32, i32* %2, align 4
  %18 = load i32, i32* %6, align 4
  %19 = icmp slt i32 %17, %18
  br i1 %19, label %20, label %33

20:                                               ; preds = %16
  %21 = load i32, i32* %2, align 4
  %22 = sext i32 %21 to i64
  %23 = getelementptr inbounds [100 x [10 x i8]], [100 x [10 x i8]]* %12, i64 0, i64 %22
  %24 = getelementptr inbounds [10 x i8], [10 x i8]* %23, i64 0, i64 0
  %25 = call i32 (i8*, ...) @__isoc99_scanf(i8* getelementptr inbounds ([3 x i8], [3 x i8]* @.str.1, i64 0, i64 0), i8* %24)
  %26 = load i32, i32* %2, align 4
  %27 = sext i32 %26 to i64
  %28 = getelementptr inbounds [100 x i32], [100 x i32]* %9, i64 0, i64 %27
  %29 = call i32 (i8*, ...) @__isoc99_scanf(i8* getelementptr inbounds ([3 x i8], [3 x i8]* @.str, i64 0, i64 0), i32* %28)
  br label %30

30:                                               ; preds = %20
  %31 = load i32, i32* %2, align 4
  %32 = add nsw i32 %31, 1
  store i32 %32, i32* %2, align 4
  br label %16

33:                                               ; preds = %16
  store i32 0, i32* %2, align 4
  br label %34

34:                                               ; preds = %52, %33
  %35 = load i32, i32* %2, align 4
  %36 = load i32, i32* %6, align 4
  %37 = icmp slt i32 %35, %36
  br i1 %37, label %38, label %55

38:                                               ; preds = %34
  %39 = load i32, i32* %2, align 4
  %40 = sext i32 %39 to i64
  %41 = getelementptr inbounds [100 x i32], [100 x i32]* %9, i64 0, i64 %40
  %42 = load i32, i32* %41, align 4
  %43 = icmp sge i32 %42, 60
  br i1 %43, label %44, label %51

44:                                               ; preds = %38
  %45 = load i32, i32* %2, align 4
  %46 = load i32, i32* %3, align 4
  %47 = sext i32 %46 to i64
  %48 = getelementptr inbounds [100 x i32], [100 x i32]* %10, i64 0, i64 %47
  store i32 %45, i32* %48, align 4
  %49 = load i32, i32* %3, align 4
  %50 = add nsw i32 %49, 1
  store i32 %50, i32* %3, align 4
  br label %51

51:                                               ; preds = %44, %38
  br label %52

52:                                               ; preds = %51
  %53 = load i32, i32* %2, align 4
  %54 = add nsw i32 %53, 1
  store i32 %54, i32* %2, align 4
  br label %34

55:                                               ; preds = %34
  %56 = load i32, i32* %3, align 4
  store i32 %56, i32* %2, align 4
  br label %57

57:                                               ; preds = %106, %55
  %58 = load i32, i32* %2, align 4
  %59 = icmp sge i32 %58, 0
  br i1 %59, label %60, label %109

60:                                               ; preds = %57
  store i32 0, i32* %4, align 4
  br label %61

61:                                               ; preds = %102, %60
  %62 = load i32, i32* %4, align 4
  %63 = load i32, i32* %2, align 4
  %64 = sub nsw i32 %63, 1
  %65 = icmp slt i32 %62, %64
  br i1 %65, label %66, label %105

66:                                               ; preds = %61
  %67 = load i32, i32* %4, align 4
  %68 = sext i32 %67 to i64
  %69 = getelementptr inbounds [100 x i32], [100 x i32]* %10, i64 0, i64 %68
  %70 = load i32, i32* %69, align 4
  %71 = sext i32 %70 to i64
  %72 = getelementptr inbounds [100 x i32], [100 x i32]* %9, i64 0, i64 %71
  %73 = load i32, i32* %72, align 4
  %74 = load i32, i32* %4, align 4
  %75 = add nsw i32 %74, 1
  %76 = sext i32 %75 to i64
  %77 = getelementptr inbounds [100 x i32], [100 x i32]* %10, i64 0, i64 %76
  %78 = load i32, i32* %77, align 4
  %79 = sext i32 %78 to i64
  %80 = getelementptr inbounds [100 x i32], [100 x i32]* %9, i64 0, i64 %79
  %81 = load i32, i32* %80, align 4
  %82 = icmp slt i32 %73, %81
  br i1 %82, label %83, label %101

83:                                               ; preds = %66
  %84 = load i32, i32* %4, align 4
  %85 = add nsw i32 %84, 1
  %86 = sext i32 %85 to i64
  %87 = getelementptr inbounds [100 x i32], [100 x i32]* %10, i64 0, i64 %86
  %88 = load i32, i32* %87, align 4
  store i32 %88, i32* %5, align 4
  %89 = load i32, i32* %4, align 4
  %90 = sext i32 %89 to i64
  %91 = getelementptr inbounds [100 x i32], [100 x i32]* %10, i64 0, i64 %90
  %92 = load i32, i32* %91, align 4
  %93 = load i32, i32* %4, align 4
  %94 = add nsw i32 %93, 1
  %95 = sext i32 %94 to i64
  %96 = getelementptr inbounds [100 x i32], [100 x i32]* %10, i64 0, i64 %95
  store i32 %92, i32* %96, align 4
  %97 = load i32, i32* %5, align 4
  %98 = load i32, i32* %4, align 4
  %99 = sext i32 %98 to i64
  %100 = getelementptr inbounds [100 x i32], [100 x i32]* %10, i64 0, i64 %99
  store i32 %97, i32* %100, align 4
  br label %101

101:                                              ; preds = %83, %66
  br label %102

102:                                              ; preds = %101
  %103 = load i32, i32* %4, align 4
  %104 = add nsw i32 %103, 1
  store i32 %104, i32* %4, align 4
  br label %61

105:                                              ; preds = %61
  br label %106

106:                                              ; preds = %105
  %107 = load i32, i32* %2, align 4
  %108 = add nsw i32 %107, -1
  store i32 %108, i32* %2, align 4
  br label %57

109:                                              ; preds = %57
  store i32 0, i32* %2, align 4
  br label %110

110:                                              ; preds = %123, %109
  %111 = load i32, i32* %2, align 4
  %112 = load i32, i32* %3, align 4
  %113 = icmp slt i32 %111, %112
  br i1 %113, label %114, label %126

114:                                              ; preds = %110
  %115 = load i32, i32* %2, align 4
  %116 = sext i32 %115 to i64
  %117 = getelementptr inbounds [100 x i32], [100 x i32]* %10, i64 0, i64 %116
  %118 = load i32, i32* %117, align 4
  %119 = sext i32 %118 to i64
  %120 = getelementptr inbounds [100 x [10 x i8]], [100 x [10 x i8]]* %12, i64 0, i64 %119
  %121 = getelementptr inbounds [10 x i8], [10 x i8]* %120, i64 0, i64 0
  %122 = call i32 @puts(i8* %121)
  br label %123

123:                                              ; preds = %114
  %124 = load i32, i32* %2, align 4
  %125 = add nsw i32 %124, 1
  store i32 %125, i32* %2, align 4
  br label %110

126:                                              ; preds = %110
  store i32 0, i32* %2, align 4
  br label %127

127:                                              ; preds = %144, %126
  %128 = load i32, i32* %2, align 4
  %129 = load i32, i32* %6, align 4
  %130 = icmp slt i32 %128, %129
  br i1 %130, label %131, label %147

131:                                              ; preds = %127
  %132 = load i32, i32* %2, align 4
  %133 = sext i32 %132 to i64
  %134 = getelementptr inbounds [100 x i32], [100 x i32]* %9, i64 0, i64 %133
  %135 = load i32, i32* %134, align 4
  %136 = icmp slt i32 %135, 60
  br i1 %136, label %137, label %143

137:                                              ; preds = %131
  %138 = load i32, i32* %2, align 4
  %139 = sext i32 %138 to i64
  %140 = getelementptr inbounds [100 x [10 x i8]], [100 x [10 x i8]]* %12, i64 0, i64 %139
  %141 = getelementptr inbounds [10 x i8], [10 x i8]* %140, i64 0, i64 0
  %142 = call i32 @puts(i8* %141)
  br label %143

143:                                              ; preds = %137, %131
  br label %144

144:                                              ; preds = %143
  %145 = load i32, i32* %2, align 4
  %146 = add nsw i32 %145, 1
  store i32 %146, i32* %2, align 4
  br label %127

147:                                              ; preds = %127
  ret i32 0
}

declare dso_local i32 @__isoc99_scanf(i8*, ...) #1

declare dso_local i32 @puts(i8*) #1


!llvm.module.flags = !{!0}
!llvm.ident = !{!1}

!0 = !{i32 1, !"wchar_size", i32 4}
!1 = !{!"clang version 10.0.0-4ubuntu1 "}
